target datalayout = "e-m:e-p270:32:32-p271:32:32-p272:64:64-i64:64-i128:128-f80:128-n8:16:32:64-S128"
target triple = "x86_64-pc-linux-gnu"

%struct._zend_op_array = type { i8, [3 x i8], i32, ptr, ptr, ptr, i32, i32, ptr, ptr, ptr, ptr, i32, ptr, i32, i32, i32, ptr, ptr, ptr, ptr, ptr, i32, i32, ptr, ptr, ptr, i32, i32, i32, i32, ptr, ptr, [6 x ptr] }

; Function Attrs: nounwind uwtable
define internal void @zend_foreach_op_array_helper(ptr noundef %0, ptr noundef %1, ptr noundef %2) #0 {
  %4 = alloca ptr, align 8
  %5 = alloca ptr, align 8
  %6 = alloca ptr, align 8
  %7 = alloca i32, align 4
  store ptr %0, ptr %4, align 8, !tbaa !98
  store ptr %1, ptr %5, align 8, !tbaa !28
  store ptr %2, ptr %6, align 8, !tbaa !28
  %8 = load ptr, ptr %5, align 8, !tbaa !28
  %9 = load ptr, ptr %4, align 8, !tbaa !98
  %10 = load ptr, ptr %6, align 8, !tbaa !28
  call void %8(ptr noundef %9, ptr noundef %10)
  call void @llvm.lifetime.start.p0(i64 4, ptr %7) #13
  store i32 0, ptr %7, align 4, !tbaa !29
  br label %11

11:                                               ; preds = %28, %3
  %12 = load i32, ptr %7, align 4, !tbaa !29
  %13 = load ptr, ptr %4, align 8, !tbaa !98
  %14 = getelementptr inbounds nuw %struct._zend_op_array, ptr %13, i32 0, i32 30
  %15 = load i32, ptr %14, align 4, !tbaa !177
  %16 = icmp ult i32 %12, %15
  br i1 %16, label %18, label %17

17:                                               ; preds = %11
  call void @llvm.lifetime.end.p0(i64 4, ptr %7) #13
  br label %31

18:                                               ; preds = %11
  %19 = load ptr, ptr %4, align 8, !tbaa !98
  %20 = getelementptr inbounds nuw %struct._zend_op_array, ptr %19, i32 0, i32 32
  %21 = load ptr, ptr %20, align 8, !tbaa !178
  %22 = load i32, ptr %7, align 4, !tbaa !29
  %23 = zext i32 %22 to i64
  %24 = getelementptr inbounds nuw ptr, ptr %21, i64 %23
  %25 = load ptr, ptr %24, align 8, !tbaa !98
  %26 = load ptr, ptr %5, align 8, !tbaa !28
  %27 = load ptr, ptr %6, align 8, !tbaa !28
  call void @zend_foreach_op_array_helper(ptr noundef %25, ptr noundef %26, ptr noundef %27)
  br label %28

28:                                               ; preds = %18
  %29 = load i32, ptr %7, align 4, !tbaa !29
  %30 = add i32 %29, 1
  store i32 %30, ptr %7, align 4, !tbaa !29
  br label %11

31:                                               ; preds = %17
  ret void
}