; Function Attrs: nounwind uwtable
define internal fastcc void @zend_foreach_op_array_helper(ptr noundef %0, ptr noundef readonly captures(none) %1, ptr noundef %2) unnamed_addr #0 {
  tail call void %1(ptr noundef %0, ptr noundef %2) #20
  %4 = getelementptr inbounds nuw i8, ptr %0, i64 188
  %5 = load i32, ptr %4, align 4, !tbaa !149
  %.not = icmp eq i32 %5, 0
  br i1 %.not, label %._crit_edge, label %.lr.ph

.lr.ph:                                           ; preds = %3
  %6 = getelementptr inbounds nuw i8, ptr %0, i64 200
  br label %7

._crit_edge:                                      ; preds = %7, %3
  ret void

7:                                                ; preds = %.lr.ph, %7
  %indvars.iv = phi i64 [ 0, %.lr.ph ], [ %indvars.iv.next, %7 ]
  %8 = load ptr, ptr %6, align 8, !tbaa !150
  %9 = getelementptr inbounds nuw ptr, ptr %8, i64 %indvars.iv
  %10 = load ptr, ptr %9, align 8, !tbaa !151
  tail call fastcc void @zend_foreach_op_array_helper(ptr noundef %10, ptr noundef %1, ptr noundef %2)
  %indvars.iv.next = add nuw nsw i64 %indvars.iv, 1
  %11 = load i32, ptr %4, align 4, !tbaa !149
  %12 = zext i32 %11 to i64
  %13 = icmp samesign ult i64 %indvars.iv.next, %12
  br i1 %13, label %7, label %._crit_edge
}